target datalayout = "e-m:e-p270:32:32-p271:32:32-p272:64:64-i64:64-i128:128-f80:128-n8:16:32:64-S128"
target triple = "x86_64-unknown-linux-gnu"

%"class.QuantLib::Distribution" = type <{ i32, [4 x i8], double, double, %"class.std::vector", %"class.std::vector.0", %"class.std::vector.0", %"class.std::vector.0", %"class.std::vector.0", %"class.std::vector.0", %"class.std::vector.0", %"class.std::vector.0", i32, i32, i8, [7 x i8] }>
%"class.std::vector" = type { %"struct.std::_Vector_base" }
%"struct.std::_Vector_base" = type { %"struct.std::_Vector_base<int, std::allocator<int>>::_Vector_impl" }
%"struct.std::_Vector_base<int, std::allocator<int>>::_Vector_impl" = type { %"struct.std::_Vector_base<int, std::allocator<int>>::_Vector_impl_data" }
%"struct.std::_Vector_base<int, std::allocator<int>>::_Vector_impl_data" = type { ptr, ptr, ptr }
%"class.std::vector.0" = type { %"struct.std::_Vector_base.1" }
%"struct.std::_Vector_base.1" = type { %"struct.std::_Vector_base<double, std::allocator<double>>::_Vector_impl" }
%"struct.std::_Vector_base<double, std::allocator<double>>::_Vector_impl" = type { %"struct.std::_Vector_base<double, std::allocator<double>>::_Vector_impl_data" }
%"struct.std::_Vector_base<double, std::allocator<double>>::_Vector_impl_data" = type { ptr, ptr, ptr }

; Function Attrs: mustprogress nounwind uwtable
define linkonce_odr noundef nonnull align 8 dereferenceable(8) ptr @_ZNSt6vectorIdSaIdEEixEm(ptr noundef nonnull align 8 dereferenceable(24) %this, i64 noundef %__n) #2 comdat align 2 {
entry:
  %this.addr = alloca ptr, align 8
  %__n.addr = alloca i64, align 8
  store ptr %this, ptr %this.addr, align 8, !tbaa !3
  store i64 %__n, ptr %__n.addr, align 8, !tbaa !29
  %this1 = load ptr, ptr %this.addr, align 8
  %_M_impl = getelementptr inbounds nuw %"struct.std::_Vector_base.1", ptr %this1, i32 0, i32 0
  %_M_start = getelementptr inbounds nuw %"struct.std::_Vector_base<double, std::allocator<double>>::_Vector_impl_data", ptr %_M_impl, i32 0, i32 0
  %0 = load ptr, ptr %_M_start, align 8, !tbaa !31
  %1 = load i64, ptr %__n.addr, align 8, !tbaa !29
  %add.ptr = getelementptr inbounds nuw double, ptr %0, i64 %1
  ret ptr %add.ptr
}

; Function Attrs: mustprogress nounwind uwtable
define noundef double @_ZN8QuantLib12Distribution13expectedValueEv(ptr noundef nonnull align 8 dereferenceable(225) %this) #2 align 2 {
entry:
  %this.addr = alloca ptr, align 8
  %expected = alloca double, align 8
  %i = alloca i32, align 4
  %x = alloca double, align 8
  store ptr %this, ptr %this.addr, align 8, !tbaa !3
  %this1 = load ptr, ptr %this.addr, align 8
  call void @_ZN8QuantLib12Distribution9normalizeEv(ptr noundef nonnull align 8 dereferenceable(225) %this1)
  call void @llvm.lifetime.start.p0(i64 8, ptr %expected) #15
  store double 0.000000e+00, ptr %expected, align 8, !tbaa !9
  call void @llvm.lifetime.start.p0(i64 4, ptr %i) #15
  store i32 0, ptr %i, align 4, !tbaa !7
  br label %for.cond

for.cond:                                         ; preds = %for.inc, %entry
  %0 = load i32, ptr %i, align 4, !tbaa !7
  %size_ = getelementptr inbounds nuw %"class.QuantLib::Distribution", ptr %this1, i32 0, i32 0
  %1 = load i32, ptr %size_, align 8, !tbaa !11
  %cmp = icmp slt i32 %0, %1
  br i1 %cmp, label %for.body, label %for.cond.cleanup

for.cond.cleanup:                                 ; preds = %for.cond
  call void @llvm.lifetime.end.p0(i64 4, ptr %i) #15
  br label %for.end

for.body:                                         ; preds = %for.cond
  call void @llvm.lifetime.start.p0(i64 8, ptr %x) #15
  %x_ = getelementptr inbounds nuw %"class.QuantLib::Distribution", ptr %this1, i32 0, i32 5
  %2 = load i32, ptr %i, align 4, !tbaa !7
  %conv = sext i32 %2 to i64
  %call = call noundef nonnull align 8 dereferenceable(8) ptr @_ZNSt6vectorIdSaIdEEixEm(ptr noundef nonnull align 8 dereferenceable(24) %x_, i64 noundef %conv) #15
  %3 = load double, ptr %call, align 8, !tbaa !9
  %dx_ = getelementptr inbounds nuw %"class.QuantLib::Distribution", ptr %this1, i32 0, i32 6
  %4 = load i32, ptr %i, align 4, !tbaa !7
  %conv2 = sext i32 %4 to i64
  %call3 = call noundef nonnull align 8 dereferenceable(8) ptr @_ZNSt6vectorIdSaIdEEixEm(ptr noundef nonnull align 8 dereferenceable(24) %dx_, i64 noundef %conv2) #15
  %5 = load double, ptr %call3, align 8, !tbaa !9
  %div = fdiv double %5, 2.000000e+00
  %add = fadd double %3, %div
  store double %add, ptr %x, align 8, !tbaa !9
  %6 = load double, ptr %x, align 8, !tbaa !9
  %dx_4 = getelementptr inbounds nuw %"class.QuantLib::Distribution", ptr %this1, i32 0, i32 6
  %7 = load i32, ptr %i, align 4, !tbaa !7
  %conv5 = sext i32 %7 to i64
  %call6 = call noundef nonnull align 8 dereferenceable(8) ptr @_ZNSt6vectorIdSaIdEEixEm(ptr noundef nonnull align 8 dereferenceable(24) %dx_4, i64 noundef %conv5) #15
  %8 = load double, ptr %call6, align 8, !tbaa !9
  %mul = fmul double %6, %8
  %density_ = getelementptr inbounds nuw %"class.QuantLib::Distribution", ptr %this1, i32 0, i32 7
  %9 = load i32, ptr %i, align 4, !tbaa !7
  %conv7 = sext i32 %9 to i64
  %call8 = call noundef nonnull align 8 dereferenceable(8) ptr @_ZNSt6vectorIdSaIdEEixEm(ptr noundef nonnull align 8 dereferenceable(24) %density_, i64 noundef %conv7) #15
  %10 = load double, ptr %call8, align 8, !tbaa !9
  %11 = load double, ptr %expected, align 8, !tbaa !9
  %12 = call double @llvm.fmuladd.f64(double %mul, double %10, double %11)
  store double %12, ptr %expected, align 8, !tbaa !9
  call void @llvm.lifetime.end.p0(i64 8, ptr %x) #15
  br label %for.inc

for.inc:                                          ; preds = %for.body
  %13 = load i32, ptr %i, align 4, !tbaa !7
  %inc = add nsw i32 %13, 1
  store i32 %inc, ptr %i, align 4, !tbaa !7
  br label %for.cond, !llvm.loop !44

for.end:                                          ; preds = %for.cond.cleanup
  %14 = load double, ptr %expected, align 8, !tbaa !9
  call void @llvm.lifetime.end.p0(i64 8, ptr %expected) #15
  ret double %14
}