; Function Attrs: mustprogress nofree norecurse nosync nounwind memory(readwrite, inaccessiblemem: none) uwtable
define noundef double @_ZN8QuantLib12Distribution13expectedValueEv(ptr nocapture noundef nonnull align 8 dereferenceable(225) %this) local_unnamed_addr #6 align 2 {
entry:
  tail call void @_ZN8QuantLib12Distribution9normalizeEv(ptr noundef nonnull align 8 dereferenceable(225) %this)
  %0 = load i32, ptr %this, align 8, !tbaa !3
  %cmp10 = icmp sgt i32 %0, 0
  br i1 %cmp10, label %for.body.lr.ph, label %for.cond.cleanup

for.body.lr.ph:                                   ; preds = %entry
  %x_ = getelementptr inbounds nuw i8, ptr %this, i64 48
  %1 = load ptr, ptr %x_, align 8, !tbaa !25
  %dx_ = getelementptr inbounds nuw i8, ptr %this, i64 72
  %2 = load ptr, ptr %dx_, align 8, !tbaa !25
  %density_ = getelementptr inbounds nuw i8, ptr %this, i64 96
  %3 = load ptr, ptr %density_, align 8, !tbaa !25
  %wide.trip.count = zext nneg i32 %0 to i64
  br label %for.body

for.cond.cleanup:                                 ; preds = %for.body, %entry
  %expected.0.lcssa = phi double [ 0.000000e+00, %entry ], [ %7, %for.body ]
  ret double %expected.0.lcssa

for.body:                                         ; preds = %for.body.lr.ph, %for.body
  %indvars.iv = phi i64 [ 0, %for.body.lr.ph ], [ %indvars.iv.next, %for.body ]
  %expected.012 = phi double [ 0.000000e+00, %for.body.lr.ph ], [ %7, %for.body ]
  %add.ptr.i = getelementptr inbounds nuw double, ptr %1, i64 %indvars.iv
  %4 = load double, ptr %add.ptr.i, align 8, !tbaa !27
  %add.ptr.i7 = getelementptr inbounds nuw double, ptr %2, i64 %indvars.iv
  %5 = load double, ptr %add.ptr.i7, align 8, !tbaa !27
  %div = fmul double %5, 5.000000e-01
  %add = fadd double %4, %div
  %mul = fmul double %5, %add
  %add.ptr.i9 = getelementptr inbounds nuw double, ptr %3, i64 %indvars.iv
  %6 = load double, ptr %add.ptr.i9, align 8, !tbaa !27
  %7 = tail call double @llvm.fmuladd.f64(double %mul, double %6, double %expected.012)
  %indvars.iv.next = add nuw nsw i64 %indvars.iv, 1
  %exitcond.not = icmp eq i64 %indvars.iv.next, %wide.trip.count
  br i1 %exitcond.not, label %for.cond.cleanup, label %for.body, !llvm.loop !54
}